; Function Attrs: mustprogress uwtable
define noundef i64 @_ZN11OpenImageIO6v3_1_07Strutil13edit_distanceENS0_17basic_string_viewIcSt11char_traitsIcEEES5_NS1_14EditDistMetricE(ptr noundef readonly captures(none) %0, ptr noundef readonly captures(none) %1, i32 noundef %2) local_unnamed_addr #6 {
  %4 = alloca %"class.OpenImageIO::v3_1_0::basic_string_view", align 8
  %5 = alloca %"class.OpenImageIO::v3_1_0::basic_string_view", align 8
  %6 = load ptr, ptr %0, align 8, !tbaa !67
  store ptr %6, ptr %4, align 8, !tbaa !67
  %7 = getelementptr inbounds nuw i8, ptr %4, i64 8
  %8 = getelementptr inbounds nuw i8, ptr %0, i64 8
  %9 = load i64, ptr %8, align 8, !tbaa !64
  store i64 %9, ptr %7, align 8, !tbaa !64
  %10 = load ptr, ptr %1, align 8, !tbaa !67
  store ptr %10, ptr %5, align 8, !tbaa !67
  %11 = getelementptr inbounds nuw i8, ptr %5, i64 8
  %12 = getelementptr inbounds nuw i8, ptr %1, i64 8
  %13 = load i64, ptr %12, align 8, !tbaa !64
  store i64 %13, ptr %11, align 8, !tbaa !64
  %14 = call fastcc noundef i64 @_ZN11OpenImageIO6v3_1_0L20levenshtein_distanceENS0_17basic_string_viewIcSt11char_traitsIcEEES4_(ptr noundef %4, ptr noundef %5)
  ret i64 %14
}